target datalayout = "e-m:e-p270:32:32-p271:32:32-p272:64:64-i64:64-i128:128-f80:128-n8:16:32:64-S128"
target triple = "x86_64-unknown-linux-gnu"

%"class.node::crypto::ManagedX509" = type { %"class.node::MemoryRetainer", %"class.std::unique_ptr" }
%"class.node::MemoryRetainer" = type { ptr }
%"class.std::unique_ptr" = type { %"struct.std::__uniq_ptr_data" }
%"struct.std::__uniq_ptr_data" = type { %"class.std::__uniq_ptr_impl" }
%"class.std::__uniq_ptr_impl" = type { %"class.std::tuple" }
%"class.std::tuple" = type { %"struct.std::_Tuple_impl" }
%"struct.std::_Tuple_impl" = type { %"struct.std::_Head_base.1" }
%"struct.std::_Head_base.1" = type { ptr }

; Function Attrs: mustprogress nounwind uwtable
define linkonce_odr dso_local noundef nonnull align 1 dereferenceable(1) ptr @_ZNSt10_Head_baseILm1EN4node15FunctionDeleterI7x509_stXadL_Z9X509_freeEEEELb1EE7_M_headERS4_(ptr noundef nonnull align 1 dereferenceable(1) %__b) #4 comdat align 2 {
entry:
  %__b.addr = alloca ptr, align 8
  store ptr %__b, ptr %__b.addr, align 8
  %0 = load ptr, ptr %__b.addr, align 8
  ret ptr %0
}

; Function Attrs: mustprogress nounwind uwtable
define linkonce_odr dso_local noundef nonnull align 8 dereferenceable(8) ptr @_ZNSt10_Head_baseILm0EP7x509_stLb0EE7_M_headERS2_(ptr noundef nonnull align 8 dereferenceable(8) %__b) #4 comdat align 2 {
entry:
  %__b.addr = alloca ptr, align 8
  store ptr %__b, ptr %__b.addr, align 8
  %0 = load ptr, ptr %__b.addr, align 8
  %_M_head_impl = getelementptr inbounds %"struct.std::_Head_base.1", ptr %0, i32 0, i32 0
  ret ptr %_M_head_impl
}

; Function Attrs: mustprogress nounwind uwtable
define linkonce_odr dso_local noundef nonnull align 8 dereferenceable(8) ptr @_ZNSt10_Head_baseILm0EP7x509_stLb0EE7_M_headERKS2_(ptr noundef nonnull align 8 dereferenceable(8) %__b) #4 comdat align 2 {
entry:
  %__b.addr = alloca ptr, align 8
  store ptr %__b, ptr %__b.addr, align 8
  %0 = load ptr, ptr %__b.addr, align 8
  %_M_head_impl = getelementptr inbounds %"struct.std::_Head_base.1", ptr %0, i32 0, i32 0
  ret ptr %_M_head_impl
}

; Function Attrs: mustprogress nounwind uwtable
define linkonce_odr dso_local noundef nonnull align 1 dereferenceable(1) ptr @_ZNSt11_Tuple_implILm1EJN4node15FunctionDeleterI7x509_stXadL_Z9X509_freeEEEEEE7_M_headERS4_(ptr noundef nonnull align 1 dereferenceable(1) %__t) #4 comdat align 2 {
entry:
  %__t.addr = alloca ptr, align 8
  store ptr %__t, ptr %__t.addr, align 8
  %0 = load ptr, ptr %__t.addr, align 8
  %call = call noundef nonnull align 1 dereferenceable(1) ptr @_ZNSt10_Head_baseILm1EN4node15FunctionDeleterI7x509_stXadL_Z9X509_freeEEEELb1EE7_M_headERS4_(ptr noundef nonnull align 1 dereferenceable(1) %0) #3
  ret ptr %call
}

; Function Attrs: mustprogress nounwind uwtable
define linkonce_odr dso_local noundef nonnull align 8 dereferenceable(8) ptr @_ZNSt11_Tuple_implILm0EJP7x509_stN4node15FunctionDeleterIS0_XadL_Z9X509_freeEEEEEE7_M_headERS5_(ptr noundef nonnull align 8 dereferenceable(8) %__t) #4 comdat align 2 {
entry:
  %__t.addr = alloca ptr, align 8
  store ptr %__t, ptr %__t.addr, align 8
  %0 = load ptr, ptr %__t.addr, align 8
  %call = call noundef nonnull align 8 dereferenceable(8) ptr @_ZNSt10_Head_baseILm0EP7x509_stLb0EE7_M_headERS2_(ptr noundef nonnull align 8 dereferenceable(8) %0) #3
  ret ptr %call
}

; Function Attrs: mustprogress nounwind uwtable
define linkonce_odr dso_local noundef nonnull align 8 dereferenceable(8) ptr @_ZNSt11_Tuple_implILm0EJP7x509_stN4node15FunctionDeleterIS0_XadL_Z9X509_freeEEEEEE7_M_headERKS5_(ptr noundef nonnull align 8 dereferenceable(8) %__t) #4 comdat align 2 {
entry:
  %__t.addr = alloca ptr, align 8
  store ptr %__t, ptr %__t.addr, align 8
  %0 = load ptr, ptr %__t.addr, align 8
  %call = call noundef nonnull align 8 dereferenceable(8) ptr @_ZNSt10_Head_baseILm0EP7x509_stLb0EE7_M_headERKS2_(ptr noundef nonnull align 8 dereferenceable(8) %0) #3
  ret ptr %call
}

; Function Attrs: mustprogress nounwind uwtable
define linkonce_odr dso_local noundef nonnull align 1 dereferenceable(1) ptr @_ZSt12__get_helperILm1EN4node15FunctionDeleterI7x509_stXadL_Z9X509_freeEEEEJEERT0_RSt11_Tuple_implIXT_EJS4_DpT1_EE(ptr noundef nonnull align 1 dereferenceable(1) %__t) #4 comdat {
entry:
  %__t.addr = alloca ptr, align 8
  store ptr %__t, ptr %__t.addr, align 8
  %0 = load ptr, ptr %__t.addr, align 8
  %call = call noundef nonnull align 1 dereferenceable(1) ptr @_ZNSt11_Tuple_implILm1EJN4node15FunctionDeleterI7x509_stXadL_Z9X509_freeEEEEEE7_M_headERS4_(ptr noundef nonnull align 1 dereferenceable(1) %0) #3
  ret ptr %call
}

; Function Attrs: mustprogress nounwind uwtable
define linkonce_odr dso_local noundef nonnull align 8 dereferenceable(8) ptr @_ZSt12__get_helperILm0EP7x509_stJN4node15FunctionDeleterIS0_XadL_Z9X509_freeEEEEEERT0_RSt11_Tuple_implIXT_EJS5_DpT1_EE(ptr noundef nonnull align 8 dereferenceable(8) %__t) #4 comdat {
entry:
  %__t.addr = alloca ptr, align 8
  store ptr %__t, ptr %__t.addr, align 8
  %0 = load ptr, ptr %__t.addr, align 8
  %call = call noundef nonnull align 8 dereferenceable(8) ptr @_ZNSt11_Tuple_implILm0EJP7x509_stN4node15FunctionDeleterIS0_XadL_Z9X509_freeEEEEEE7_M_headERS5_(ptr noundef nonnull align 8 dereferenceable(8) %0) #3
  ret ptr %call
}

; Function Attrs: mustprogress nounwind uwtable
define linkonce_odr dso_local noundef nonnull align 8 dereferenceable(8) ptr @_ZSt12__get_helperILm0EP7x509_stJN4node15FunctionDeleterIS0_XadL_Z9X509_freeEEEEEERKT0_RKSt11_Tuple_implIXT_EJS5_DpT1_EE(ptr noundef nonnull align 8 dereferenceable(8) %__t) #4 comdat {
entry:
  %__t.addr = alloca ptr, align 8
  store ptr %__t, ptr %__t.addr, align 8
  %0 = load ptr, ptr %__t.addr, align 8
  %call = call noundef nonnull align 8 dereferenceable(8) ptr @_ZNSt11_Tuple_implILm0EJP7x509_stN4node15FunctionDeleterIS0_XadL_Z9X509_freeEEEEEE7_M_headERKS5_(ptr noundef nonnull align 8 dereferenceable(8) %0) #3
  ret ptr %call
}

; Function Attrs: mustprogress nounwind uwtable
define linkonce_odr dso_local noundef nonnull align 1 dereferenceable(1) ptr @_ZSt3getILm1EJP7x509_stN4node15FunctionDeleterIS0_XadL_Z9X509_freeEEEEEERNSt13tuple_elementIXT_ESt5tupleIJDpT0_EEE4typeERS9_(ptr noundef nonnull align 8 dereferenceable(8) %__t) #4 comdat {
entry:
  %__t.addr = alloca ptr, align 8
  store ptr %__t, ptr %__t.addr, align 8
  %0 = load ptr, ptr %__t.addr, align 8
  %call = call noundef nonnull align 1 dereferenceable(1) ptr @_ZSt12__get_helperILm1EN4node15FunctionDeleterI7x509_stXadL_Z9X509_freeEEEEJEERT0_RSt11_Tuple_implIXT_EJS4_DpT1_EE(ptr noundef nonnull align 1 dereferenceable(1) %0) #3
  ret ptr %call
}

; Function Attrs: mustprogress nounwind uwtable
define linkonce_odr dso_local noundef nonnull align 8 dereferenceable(8) ptr @_ZSt3getILm0EJP7x509_stN4node15FunctionDeleterIS0_XadL_Z9X509_freeEEEEEERNSt13tuple_elementIXT_ESt5tupleIJDpT0_EEE4typeERS9_(ptr noundef nonnull align 8 dereferenceable(8) %__t) #4 comdat {
entry:
  %__t.addr = alloca ptr, align 8
  store ptr %__t, ptr %__t.addr, align 8
  %0 = load ptr, ptr %__t.addr, align 8
  %call = call noundef nonnull align 8 dereferenceable(8) ptr @_ZSt12__get_helperILm0EP7x509_stJN4node15FunctionDeleterIS0_XadL_Z9X509_freeEEEEEERT0_RSt11_Tuple_implIXT_EJS5_DpT1_EE(ptr noundef nonnull align 8 dereferenceable(8) %0) #3
  ret ptr %call
}

; Function Attrs: mustprogress nounwind uwtable
define linkonce_odr dso_local noundef nonnull align 8 dereferenceable(8) ptr @_ZSt3getILm0EJP7x509_stN4node15FunctionDeleterIS0_XadL_Z9X509_freeEEEEEERKNSt13tuple_elementIXT_ESt5tupleIJDpT0_EEE4typeERKS9_(ptr noundef nonnull align 8 dereferenceable(8) %__t) #4 comdat {
entry:
  %__t.addr = alloca ptr, align 8
  store ptr %__t, ptr %__t.addr, align 8
  %0 = load ptr, ptr %__t.addr, align 8
  %call = call noundef nonnull align 8 dereferenceable(8) ptr @_ZSt12__get_helperILm0EP7x509_stJN4node15FunctionDeleterIS0_XadL_Z9X509_freeEEEEEERKT0_RKSt11_Tuple_implIXT_EJS5_DpT1_EE(ptr noundef nonnull align 8 dereferenceable(8) %0) #3
  ret ptr %call
}

; Function Attrs: mustprogress nounwind uwtable
define linkonce_odr dso_local void @_ZNK4node15FunctionDeleterI7x509_stXadL_Z9X509_freeEEEclEPS1_(ptr noundef nonnull align 1 dereferenceable(1) %this, ptr noundef %pointer) #4 comdat align 2 {
entry:
  %this.addr = alloca ptr, align 8
  %pointer.addr = alloca ptr, align 8
  store ptr %this, ptr %this.addr, align 8
  store ptr %pointer, ptr %pointer.addr, align 8
  %0 = load ptr, ptr %pointer.addr, align 8
  call void @X509_free(ptr noundef %0)
  ret void
}

; Function Attrs: mustprogress nounwind uwtable
define linkonce_odr dso_local noundef nonnull align 1 dereferenceable(1) ptr @_ZNSt15__uniq_ptr_implI7x509_stN4node15FunctionDeleterIS0_XadL_Z9X509_freeEEEEE10_M_deleterEv(ptr noundef nonnull align 8 dereferenceable(8) %this) #4 comdat align 2 {
entry:
  %this.addr = alloca ptr, align 8
  store ptr %this, ptr %this.addr, align 8
  %this1 = load ptr, ptr %this.addr, align 8
  %_M_t = getelementptr inbounds %"class.std::__uniq_ptr_impl", ptr %this1, i32 0, i32 0
  %call = call noundef nonnull align 1 dereferenceable(1) ptr @_ZSt3getILm1EJP7x509_stN4node15FunctionDeleterIS0_XadL_Z9X509_freeEEEEEERNSt13tuple_elementIXT_ESt5tupleIJDpT0_EEE4typeERS9_(ptr noundef nonnull align 8 dereferenceable(8) %_M_t) #3
  ret ptr %call
}

; Function Attrs: mustprogress nounwind uwtable
define linkonce_odr dso_local noundef nonnull align 8 dereferenceable(8) ptr @_ZNSt15__uniq_ptr_implI7x509_stN4node15FunctionDeleterIS0_XadL_Z9X509_freeEEEEE6_M_ptrEv(ptr noundef nonnull align 8 dereferenceable(8) %this) #4 comdat align 2 {
entry:
  %this.addr = alloca ptr, align 8
  store ptr %this, ptr %this.addr, align 8
  %this1 = load ptr, ptr %this.addr, align 8
  %_M_t = getelementptr inbounds %"class.std::__uniq_ptr_impl", ptr %this1, i32 0, i32 0
  %call = call noundef nonnull align 8 dereferenceable(8) ptr @_ZSt3getILm0EJP7x509_stN4node15FunctionDeleterIS0_XadL_Z9X509_freeEEEEEERNSt13tuple_elementIXT_ESt5tupleIJDpT0_EEE4typeERS9_(ptr noundef nonnull align 8 dereferenceable(8) %_M_t) #3
  ret ptr %call
}

; Function Attrs: mustprogress nounwind uwtable
define linkonce_odr dso_local noundef ptr @_ZNKSt15__uniq_ptr_implI7x509_stN4node15FunctionDeleterIS0_XadL_Z9X509_freeEEEEE6_M_ptrEv(ptr noundef nonnull align 8 dereferenceable(8) %this) #4 comdat align 2 {
entry:
  %this.addr = alloca ptr, align 8
  store ptr %this, ptr %this.addr, align 8
  %this1 = load ptr, ptr %this.addr, align 8
  %_M_t = getelementptr inbounds %"class.std::__uniq_ptr_impl", ptr %this1, i32 0, i32 0
  %call = call noundef nonnull align 8 dereferenceable(8) ptr @_ZSt3getILm0EJP7x509_stN4node15FunctionDeleterIS0_XadL_Z9X509_freeEEEEEERKNSt13tuple_elementIXT_ESt5tupleIJDpT0_EEE4typeERKS9_(ptr noundef nonnull align 8 dereferenceable(8) %_M_t) #3
  %0 = load ptr, ptr %call, align 8
  ret ptr %0
}

; Function Attrs: mustprogress nounwind uwtable
define linkonce_odr dso_local void @_ZNSt15__uniq_ptr_implI7x509_stN4node15FunctionDeleterIS0_XadL_Z9X509_freeEEEEE5resetEPS0_(ptr noundef nonnull align 8 dereferenceable(8) %this, ptr noundef %__p) #4 comdat align 2 {
entry:
  %this.addr = alloca ptr, align 8
  %__p.addr = alloca ptr, align 8
  %__old_p = alloca ptr, align 8
  store ptr %this, ptr %this.addr, align 8
  store ptr %__p, ptr %__p.addr, align 8
  %this1 = load ptr, ptr %this.addr, align 8
  %call = call noundef nonnull align 8 dereferenceable(8) ptr @_ZNSt15__uniq_ptr_implI7x509_stN4node15FunctionDeleterIS0_XadL_Z9X509_freeEEEEE6_M_ptrEv(ptr noundef nonnull align 8 dereferenceable(8) %this1) #3
  %0 = load ptr, ptr %call, align 8
  store ptr %0, ptr %__old_p, align 8
  %1 = load ptr, ptr %__p.addr, align 8
  %call2 = call noundef nonnull align 8 dereferenceable(8) ptr @_ZNSt15__uniq_ptr_implI7x509_stN4node15FunctionDeleterIS0_XadL_Z9X509_freeEEEEE6_M_ptrEv(ptr noundef nonnull align 8 dereferenceable(8) %this1) #3
  store ptr %1, ptr %call2, align 8
  %2 = load ptr, ptr %__old_p, align 8
  %tobool = icmp ne ptr %2, null
  br i1 %tobool, label %if.then, label %if.end

if.then:                                          ; preds = %entry
  %call3 = call noundef nonnull align 1 dereferenceable(1) ptr @_ZNSt15__uniq_ptr_implI7x509_stN4node15FunctionDeleterIS0_XadL_Z9X509_freeEEEEE10_M_deleterEv(ptr noundef nonnull align 8 dereferenceable(8) %this1) #3
  %3 = load ptr, ptr %__old_p, align 8
  call void @_ZNK4node15FunctionDeleterI7x509_stXadL_Z9X509_freeEEEclEPS1_(ptr noundef nonnull align 1 dereferenceable(1) %call3, ptr noundef %3)
  br label %if.end

if.end:                                           ; preds = %if.then, %entry
  ret void
}

; Function Attrs: mustprogress nounwind uwtable
define linkonce_odr dso_local noundef ptr @_ZNKSt10unique_ptrI7x509_stN4node15FunctionDeleterIS0_XadL_Z9X509_freeEEEEE3getEv(ptr noundef nonnull align 8 dereferenceable(8) %this) #4 comdat align 2 {
entry:
  %this.addr = alloca ptr, align 8
  store ptr %this, ptr %this.addr, align 8
  %this1 = load ptr, ptr %this.addr, align 8
  %_M_t = getelementptr inbounds %"class.std::unique_ptr", ptr %this1, i32 0, i32 0
  %call = call noundef ptr @_ZNKSt15__uniq_ptr_implI7x509_stN4node15FunctionDeleterIS0_XadL_Z9X509_freeEEEEE6_M_ptrEv(ptr noundef nonnull align 8 dereferenceable(8) %_M_t) #3
  ret ptr %call
}

; Function Attrs: mustprogress nounwind uwtable
define linkonce_odr dso_local noundef zeroext i1 @_ZNKSt10unique_ptrI7x509_stN4node15FunctionDeleterIS0_XadL_Z9X509_freeEEEEEcvbEv(ptr noundef nonnull align 8 dereferenceable(8) %this) #4 comdat align 2 {
entry:
  %this.addr = alloca ptr, align 8
  store ptr %this, ptr %this.addr, align 8
  %this1 = load ptr, ptr %this.addr, align 8
  %call = call noundef ptr @_ZNKSt10unique_ptrI7x509_stN4node15FunctionDeleterIS0_XadL_Z9X509_freeEEEEE3getEv(ptr noundef nonnull align 8 dereferenceable(8) %this1) #3
  %cmp = icmp eq ptr %call, null
  %cond = select i1 %cmp, i1 false, i1 true
  ret i1 %cond
}

; Function Attrs: mustprogress nounwind uwtable
define linkonce_odr dso_local void @_ZNSt10unique_ptrI7x509_stN4node15FunctionDeleterIS0_XadL_Z9X509_freeEEEEE5resetEPS0_(ptr noundef nonnull align 8 dereferenceable(8) %this, ptr noundef %__p) #4 comdat align 2 {
entry:
  %this.addr = alloca ptr, align 8
  %__p.addr = alloca ptr, align 8
  store ptr %this, ptr %this.addr, align 8
  store ptr %__p, ptr %__p.addr, align 8
  %this1 = load ptr, ptr %this.addr, align 8
  %_M_t = getelementptr inbounds %"class.std::unique_ptr", ptr %this1, i32 0, i32 0
  %0 = load ptr, ptr %__p.addr, align 8
  call void @_ZNSt15__uniq_ptr_implI7x509_stN4node15FunctionDeleterIS0_XadL_Z9X509_freeEEEEE5resetEPS0_(ptr noundef nonnull align 8 dereferenceable(8) %_M_t, ptr noundef %0) #3
  ret void
}

; Function Attrs: mustprogress nounwind uwtable
define linkonce_odr dso_local noundef ptr @_ZNK4node6crypto11ManagedX5093getEv(ptr noundef nonnull align 8 dereferenceable(16) %this) #4 comdat align 2 {
entry:
  %this.addr = alloca ptr, align 8
  store ptr %this, ptr %this.addr, align 8
  %this1 = load ptr, ptr %this.addr, align 8
  %cert_ = getelementptr inbounds %"class.node::crypto::ManagedX509", ptr %this1, i32 0, i32 1
  %call = call noundef ptr @_ZNKSt10unique_ptrI7x509_stN4node15FunctionDeleterIS0_XadL_Z9X509_freeEEEEE3getEv(ptr noundef nonnull align 8 dereferenceable(8) %cert_) #3
  ret ptr %call
}

; Function Attrs: mustprogress nounwind uwtable
define dso_local noundef nonnull align 8 dereferenceable(16) ptr @_ZN4node6crypto11ManagedX509aSERKS1_(ptr noundef nonnull align 8 dereferenceable(16) %this, ptr noundef nonnull align 8 dereferenceable(16) %that) #4 align 2 {
entry:
  %this.addr = alloca ptr, align 8
  %that.addr = alloca ptr, align 8
  store ptr %this, ptr %this.addr, align 8
  store ptr %that, ptr %that.addr, align 8
  %this1 = load ptr, ptr %this.addr, align 8
  %cert_ = getelementptr inbounds %"class.node::crypto::ManagedX509", ptr %this1, i32 0, i32 1
  %0 = load ptr, ptr %that.addr, align 8
  %call = call noundef ptr @_ZNK4node6crypto11ManagedX5093getEv(ptr noundef nonnull align 8 dereferenceable(16) %0)
  call void @_ZNSt10unique_ptrI7x509_stN4node15FunctionDeleterIS0_XadL_Z9X509_freeEEEEE5resetEPS0_(ptr noundef nonnull align 8 dereferenceable(8) %cert_, ptr noundef %call) #3
  %cert_2 = getelementptr inbounds %"class.node::crypto::ManagedX509", ptr %this1, i32 0, i32 1
  %call3 = call noundef zeroext i1 @_ZNKSt10unique_ptrI7x509_stN4node15FunctionDeleterIS0_XadL_Z9X509_freeEEEEEcvbEv(ptr noundef nonnull align 8 dereferenceable(8) %cert_2) #3
  br i1 %call3, label %if.then, label %if.end

if.then:                                          ; preds = %entry
  %cert_4 = getelementptr inbounds %"class.node::crypto::ManagedX509", ptr %this1, i32 0, i32 1
  %call5 = call noundef ptr @_ZNKSt10unique_ptrI7x509_stN4node15FunctionDeleterIS0_XadL_Z9X509_freeEEEEE3getEv(ptr noundef nonnull align 8 dereferenceable(8) %cert_4) #3
  %call6 = call i32 @X509_up_ref(ptr noundef %call5)
  br label %if.end

if.end:                                           ; preds = %if.then, %entry
  ret ptr %this1
}