; Function Attrs: mustprogress nounwind uwtable
define dso_local noundef nonnull align 8 dereferenceable(16) ptr @_ZN4node6crypto11ManagedX509aSERKS1_(ptr noundef nonnull returned align 8 dereferenceable(16) %this, ptr nocapture noundef nonnull readonly align 8 dereferenceable(16) %that) local_unnamed_addr #4 align 2 {
entry:
  %cert_ = getelementptr inbounds i8, ptr %this, i64 8
  %cert_.i = getelementptr inbounds i8, ptr %that, i64 8
  %0 = load ptr, ptr %cert_.i, align 8
  %1 = load ptr, ptr %cert_, align 8
  store ptr %0, ptr %cert_, align 8
  %tobool.not.i.i = icmp eq ptr %1, null
  br i1 %tobool.not.i.i, label %_ZNSt10unique_ptrI7x509_stN4node15FunctionDeleterIS0_XadL_Z9X509_freeEEEEE5resetEPS0_.exit, label %if.then.i.i

if.then.i.i:                                      ; preds = %entry
  tail call void @X509_free(ptr noundef nonnull %1) #17
  %.pr = load ptr, ptr %cert_, align 8
  br label %_ZNSt10unique_ptrI7x509_stN4node15FunctionDeleterIS0_XadL_Z9X509_freeEEEEE5resetEPS0_.exit

_ZNSt10unique_ptrI7x509_stN4node15FunctionDeleterIS0_XadL_Z9X509_freeEEEEE5resetEPS0_.exit: ; preds = %entry, %if.then.i.i
  %2 = phi ptr [ %0, %entry ], [ %.pr, %if.then.i.i ]
  %cmp.i.not = icmp eq ptr %2, null
  br i1 %cmp.i.not, label %if.end, label %if.then

if.then:                                          ; preds = %_ZNSt10unique_ptrI7x509_stN4node15FunctionDeleterIS0_XadL_Z9X509_freeEEEEE5resetEPS0_.exit
  %call6 = tail call i32 @X509_up_ref(ptr noundef nonnull %2) #17
  br label %if.end

if.end:                                           ; preds = %if.then, %_ZNSt10unique_ptrI7x509_stN4node15FunctionDeleterIS0_XadL_Z9X509_freeEEEEE5resetEPS0_.exit
  ret ptr %this
}